((lp1
S'\n'
aS' '
aS'!'
aS'$'
aS'&'
aS"'"
aS','
aS'-'
aS'.'
aS'3'
aS':'
aS';'
aS'?'
aS'A'
aS'B'
aS'C'
aS'D'
aS'E'
aS'F'
aS'G'
aS'H'
aS'I'
aS'J'
aS'K'
aS'L'
aS'M'
aS'N'
aS'O'
aS'P'
aS'Q'
aS'R'
aS'S'
aS'T'
aS'U'
aS'V'
aS'W'
aS'X'
aS'Y'
aS'Z'
aS'a'
aS'b'
aS'c'
aS'd'
aS'e'
aS'f'
aS'g'
aS'h'
aS'i'
aS'j'
aS'k'
aS'l'
aS'm'
aS'n'
aS'o'
aS'p'
aS'q'
aS'r'
aS's'
aS't'
aS'u'
aS'v'
aS'w'
aS'x'
aS'y'
aS'z'
a(dp2
S'\n'
I0
sS'!'
I2
sS' '
I1
sS'$'
I3
sS"'"
I5
sS'&'
I4
sS'-'
I7
sS','
I6
sS'.'
I8
sS'3'
I9
sS';'
I11
sS':'
I10
sS'?'
I12
sS'A'
I13
sS'C'
I15
sS'B'
I14
sS'E'
I17
sS'D'
I16
sS'G'
I19
sS'F'
I18
sS'I'
I21
sS'H'
I20
sS'K'
I23
sS'J'
I22
sS'M'
I25
sS'L'
I24
sS'O'
I27
sS'N'
I26
sS'Q'
I29
sS'P'
I28
sS'S'
I31
sS'R'
I30
sS'U'
I33
sS'T'
I32
sS'W'
I35
sS'V'
I34
sS'Y'
I37
sS'X'
I36
sS'Z'
I38
sS'a'
I39
sS'c'
I41
sS'b'
I40
sS'e'
I43
sS'd'
I42
sS'g'
I45
sS'f'
I44
sS'i'
I47
sS'h'
I46
sS'k'
I49
sS'j'
I48
sS'm'
I51
sS'l'
I50
sS'o'
I53
sS'n'
I52
sS'q'
I55
sS'p'
I54
sS's'
I57
sS'r'
I56
sS'u'
I59
sS't'
I58
sS'w'
I61
sS'v'
I60
sS'y'
I63
sS'x'
I62
sS'z'
I64
st.