((lp1
S'\n'
aS' '
aS'!'
aS'('
aS')'
aS','
aS'-'
aS'.'
aS'/'
aS':'
aS';'
aS'<'
aS'>'
aS'?'
aS'A'
aS'B'
aS'C'
aS'D'
aS'E'
aS'F'
aS'G'
aS'H'
aS'I'
aS'J'
aS'K'
aS'L'
aS'M'
aS'N'
aS'O'
aS'P'
aS'Q'
aS'R'
aS'S'
aS'T'
aS'U'
aS'V'
aS'X'
aS'Y'
aS'Z'
aS'['
aS']'
aS'a'
aS'b'
aS'c'
aS'd'
aS'e'
aS'f'
aS'g'
aS'h'
aS'i'
aS'j'
aS'k'
aS'l'
aS'm'
aS'n'
aS'o'
aS'p'
aS'r'
aS's'
aS't'
aS'u'
aS'v'
aS'x'
aS'y'
aS'z'
aS'\x80'
aS'\x81'
aS'\x85'
aS'\x86'
aS'\x88'
aS'\x89'
aS'\x8a'
aS'\x8c'
aS'\x8d'
aS'\x8e'
aS'\x8f'
aS'\x93'
aS'\x98'
aS'\x99'
aS'\x9a'
aS'\x9b'
aS'\x9c'
aS'\x9d'
aS'\x9e'
aS'\xa0'
aS'\xa1'
aS'\xa5'
aS'\xa6'
aS'\xa9'
aS'\xab'
aS'\xad'
aS'\xae'
aS'\xaf'
aS'\xb3'
aS'\xba'
aS'\xbb'
aS'\xbd'
aS'\xbe'
aS'\xc2'
aS'\xc3'
aS'\xc4'
aS'\xc5'
aS'\xe2'
a(dp2
S'\x8f'
I75
sS'\x93'
I76
sS'\x9b'
I80
sS' '
I1
sS'('
I3
sS'\xab'
I89
sS','
I5
sS'\xaf'
I92
sS'\xb3'
I93
sS'\xbb'
I95
sS'<'
I11
sS'\xc3'
I99
sS'D'
I17
sS'H'
I21
sS'L'
I25
sS'P'
I29
sS'T'
I33
sS'X'
I36
sS'd'
I44
sS'h'
I48
sS'l'
I52
sS'p'
I56
sS't'
I59
sS'x'
I62
sS'\x80'
I65
sS'\x88'
I69
sS'\x8c'
I72
sS'\x98'
I77
sS'\x9c'
I81
sS'\xa0'
I84
sS'/'
I8
sS';'
I10
sS'?'
I13
sS'C'
I16
sS'\xc4'
I100
sS'G'
I20
sS'K'
I24
sS'O'
I28
sS'S'
I32
sS'['
I39
sS'c'
I43
sS'g'
I47
sS'k'
I51
sS'o'
I55
sS's'
I58
sS'\x81'
I66
sS'\x85'
I67
sS'\x89'
I70
sS'\n'
I0
sS'\x8d'
I73
sS'\x99'
I78
sS'\x9d'
I82
sS'\xa1'
I85
sS'\xa5'
I86
sS'\xa9'
I88
sS'\xad'
I90
sS'.'
I7
sS':'
I9
sS'\xbd'
I96
sS'>'
I12
sS'B'
I15
sS'\xc5'
I101
sS'F'
I19
sS'J'
I23
sS'N'
I27
sS'R'
I31
sS'V'
I35
sS'Z'
I38
sS'b'
I42
sS'f'
I46
sS'j'
I50
sS'n'
I54
sS'r'
I57
sS'v'
I61
sS'z'
I64
sS'\x86'
I68
sS'\x8a'
I71
sS'\x8e'
I74
sS'\x9a'
I79
sS'\x9e'
I83
sS'!'
I2
sS'\xa6'
I87
sS')'
I4
sS'-'
I6
sS'\xae'
I91
sS'\xba'
I94
sS'\xbe'
I97
sS'A'
I14
sS'\xc2'
I98
sS'E'
I18
sS'I'
I22
sS'M'
I26
sS'Q'
I30
sS'U'
I34
sS'Y'
I37
sS']'
I40
sS'a'
I41
sS'\xe2'
I102
sS'e'
I45
sS'i'
I49
sS'm'
I53
sS'u'
I60
sS'y'
I63
st.