(lp1
S'\n'
aS' '
aS'!'
aS'('
aS')'
aS','
aS'-'
aS'.'
aS'/'
aS':'
aS';'
aS'<'
aS'>'
aS'?'
aS'A'
aS'B'
aS'C'
aS'D'
aS'E'
aS'F'
aS'G'
aS'H'
aS'I'
aS'J'
aS'K'
aS'L'
aS'M'
aS'N'
aS'O'
aS'P'
aS'Q'
aS'R'
aS'S'
aS'T'
aS'U'
aS'V'
aS'X'
aS'Y'
aS'Z'
aS'['
aS']'
aS'a'
aS'b'
aS'c'
aS'd'
aS'e'
aS'f'
aS'g'
aS'h'
aS'i'
aS'j'
aS'k'
aS'l'
aS'm'
aS'n'
aS'o'
aS'p'
aS'r'
aS's'
aS't'
aS'u'
aS'v'
aS'x'
aS'y'
aS'z'
aS'\x80'
aS'\x81'
aS'\x85'
aS'\x86'
aS'\x88'
aS'\x89'
aS'\x8a'
aS'\x8c'
aS'\x8d'
aS'\x8e'
aS'\x8f'
aS'\x93'
aS'\x98'
aS'\x99'
aS'\x9a'
aS'\x9b'
aS'\x9c'
aS'\x9d'
aS'\x9e'
aS'\xa0'
aS'\xa1'
aS'\xa5'
aS'\xa6'
aS'\xa9'
aS'\xab'
aS'\xad'
aS'\xae'
aS'\xaf'
aS'\xb3'
aS'\xba'
aS'\xbb'
aS'\xbd'
aS'\xbe'
aS'\xc2'
aS'\xc3'
aS'\xc4'
aS'\xc5'
aS'\xe2'
a.